target datalayout = "e-m:e-p270:32:32-p271:32:32-p272:64:64-i64:64-i128:128-f80:128-n8:16:32:64-S128"
target triple = "x86_64-unknown-linux-gnu"

%struct._GSourceFuncs = type { ptr, ptr, ptr, ptr, ptr, ptr }
%struct.QEMUBH = type { ptr, ptr, ptr, ptr, %struct.anon, i32, ptr }
%struct.anon = type { ptr }
%struct.AioContext = type { %struct._GSource, %struct.QemuRecMutex, ptr, %struct.AioHandlerList, %struct.AioHandlerList, i32, %struct.QemuLockCnt, %struct.BHList, %struct.anon.1, i8, %struct.EventNotifier, %struct.anon.2, ptr, i32, i32, ptr, ptr, %struct.io_uring, %struct.AioHandlerSList, %struct.QEMUTimerListGroup, i32, i64, i64, i64, i64, i64, %struct.AioHandlerList, i8, i32, ptr }
%struct._GSource = type { ptr, ptr, ptr, i32, ptr, i32, i32, i32, ptr, ptr, ptr, ptr, ptr }
%struct.QemuRecMutex = type { %struct.QemuMutex }
%struct.QemuMutex = type { %union.pthread_mutex_t, i8 }
%union.pthread_mutex_t = type { %struct.__pthread_mutex_s }
%struct.__pthread_mutex_s = type { i32, i32, i32, i32, i32, i16, i16, %struct.__pthread_internal_list }
%struct.__pthread_internal_list = type { ptr, ptr }
%struct.QemuLockCnt = type { i32 }
%struct.BHList = type { ptr }
%struct.anon.1 = type { ptr, ptr }
%struct.EventNotifier = type { i32, i32, i8 }
%struct.anon.2 = type { ptr }
%struct.io_uring = type { %struct.io_uring_sq, %struct.io_uring_cq, i32, i32, i32, [3 x i32] }
%struct.io_uring_sq = type { ptr, ptr, ptr, ptr, ptr, ptr, ptr, ptr, i32, i32, i64, ptr, [4 x i32] }
%struct.io_uring_cq = type { ptr, ptr, ptr, ptr, ptr, ptr, ptr, i64, ptr, [4 x i32] }
%struct.AioHandlerSList = type { ptr }
%struct.QEMUTimerListGroup = type { [4 x ptr] }
%struct.AioHandlerList = type { ptr }

@.str = private unnamed_addr constant [21 x i8] c"../qemu/util/async.c\00", align 1
@aio_source_funcs = internal global %struct._GSourceFuncs { ptr @aio_ctx_prepare, ptr @aio_ctx_check, ptr @aio_ctx_dispatch, ptr @aio_ctx_finalize, ptr null, ptr null }, align 8
@__func__.aio_context_new = private unnamed_addr constant [16 x i8] c"aio_context_new\00", align 1
@.str.2 = private unnamed_addr constant [36 x i8] c"Failed to initialize event notifier\00", align 1
@.str.3 = private unnamed_addr constant [18 x i8] c"co_schedule_bh_cb\00", align 1

; Function Attrs: nounwind sspstrong uwtable
define dso_local ptr @aio_bh_new_full(ptr noundef %ctx, ptr noundef %cb, ptr noundef %opaque, ptr noundef %name, ptr noundef %reentrancy_guard) #0 {
entry:
  %ctx.addr = alloca ptr, align 8
  %cb.addr = alloca ptr, align 8
  %opaque.addr = alloca ptr, align 8
  %name.addr = alloca ptr, align 8
  %reentrancy_guard.addr = alloca ptr, align 8
  %bh = alloca ptr, align 8
  %.compoundliteral = alloca %struct.QEMUBH, align 8
  store ptr %ctx, ptr %ctx.addr, align 8
  store ptr %cb, ptr %cb.addr, align 8
  store ptr %opaque, ptr %opaque.addr, align 8
  store ptr %name, ptr %name.addr, align 8
  store ptr %reentrancy_guard, ptr %reentrancy_guard.addr, align 8
  %call = call noalias ptr @g_malloc_n(i64 noundef 1, i64 noundef 56) #9
  store ptr %call, ptr %bh, align 8
  %0 = load ptr, ptr %bh, align 8
  %ctx1 = getelementptr inbounds %struct.QEMUBH, ptr %.compoundliteral, i32 0, i32 0
  %1 = load ptr, ptr %ctx.addr, align 8
  store ptr %1, ptr %ctx1, align 8
  %name2 = getelementptr inbounds %struct.QEMUBH, ptr %.compoundliteral, i32 0, i32 1
  %2 = load ptr, ptr %name.addr, align 8
  store ptr %2, ptr %name2, align 8
  %cb3 = getelementptr inbounds %struct.QEMUBH, ptr %.compoundliteral, i32 0, i32 2
  %3 = load ptr, ptr %cb.addr, align 8
  store ptr %3, ptr %cb3, align 8
  %opaque4 = getelementptr inbounds %struct.QEMUBH, ptr %.compoundliteral, i32 0, i32 3
  %4 = load ptr, ptr %opaque.addr, align 8
  store ptr %4, ptr %opaque4, align 8
  %next = getelementptr inbounds %struct.QEMUBH, ptr %.compoundliteral, i32 0, i32 4
  call void @llvm.memset.p0.i64(ptr align 8 %next, i8 0, i64 8, i1 false)
  %flags = getelementptr inbounds %struct.QEMUBH, ptr %.compoundliteral, i32 0, i32 5
  store i32 0, ptr %flags, align 8
  %reentrancy_guard5 = getelementptr inbounds %struct.QEMUBH, ptr %.compoundliteral, i32 0, i32 6
  %5 = load ptr, ptr %reentrancy_guard.addr, align 8
  store ptr %5, ptr %reentrancy_guard5, align 8
  call void @llvm.memcpy.p0.p0.i64(ptr align 8 %0, ptr align 8 %.compoundliteral, i64 56, i1 false)
  %6 = load ptr, ptr %bh, align 8
  ret ptr %6
}

; Function Attrs: nounwind sspstrong uwtable
define dso_local ptr @aio_context_new(ptr noundef %errp) #0 {
entry:
  %retval = alloca ptr, align 8
  %errp.addr = alloca ptr, align 8
  %ret = alloca i32, align 4
  %ctx = alloca ptr, align 8
  store ptr %errp, ptr %errp.addr, align 8
  %call = call ptr @g_source_new(ptr noundef @aio_source_funcs, i32 noundef 584)
  store ptr %call, ptr %ctx, align 8
  br label %do.body

do.body:                                          ; preds = %entry
  %0 = load ptr, ptr %ctx, align 8
  %bh_list = getelementptr inbounds %struct.AioContext, ptr %0, i32 0, i32 7
  %slh_first = getelementptr inbounds %struct.BHList, ptr %bh_list, i32 0, i32 0
  store ptr null, ptr %slh_first, align 8
  br label %do.end

do.end:                                           ; preds = %do.body
  br label %do.body1

do.body1:                                         ; preds = %do.end
  %1 = load ptr, ptr %ctx, align 8
  %bh_slice_list = getelementptr inbounds %struct.AioContext, ptr %1, i32 0, i32 8
  %sqh_first = getelementptr inbounds %struct.anon.1, ptr %bh_slice_list, i32 0, i32 0
  store ptr null, ptr %sqh_first, align 8
  %2 = load ptr, ptr %ctx, align 8
  %bh_slice_list2 = getelementptr inbounds %struct.AioContext, ptr %2, i32 0, i32 8
  %sqh_first3 = getelementptr inbounds %struct.anon.1, ptr %bh_slice_list2, i32 0, i32 0
  %3 = load ptr, ptr %ctx, align 8
  %bh_slice_list4 = getelementptr inbounds %struct.AioContext, ptr %3, i32 0, i32 8
  %sqh_last = getelementptr inbounds %struct.anon.1, ptr %bh_slice_list4, i32 0, i32 1
  store ptr %sqh_first3, ptr %sqh_last, align 8
  br label %do.end5

do.end5:                                          ; preds = %do.body1
  %4 = load ptr, ptr %ctx, align 8
  call void @aio_context_setup(ptr noundef %4)
  %5 = load ptr, ptr %ctx, align 8
  %notifier = getelementptr inbounds %struct.AioContext, ptr %5, i32 0, i32 10
  %call6 = call i32 @event_notifier_init(ptr noundef %notifier, i32 noundef 0)
  store i32 %call6, ptr %ret, align 4
  %6 = load i32, ptr %ret, align 4
  %cmp = icmp slt i32 %6, 0
  br i1 %cmp, label %if.then, label %if.end

if.then:                                          ; preds = %do.end5
  %7 = load ptr, ptr %errp.addr, align 8
  %8 = load i32, ptr %ret, align 4
  %sub = sub i32 0, %8
  call void (ptr, ptr, i32, ptr, i32, ptr, ...) @error_setg_errno_internal(ptr noundef %7, ptr noundef @.str, i32 noundef 586, ptr noundef @__func__.aio_context_new, i32 noundef %sub, ptr noundef @.str.2)
  br label %fail

if.end:                                           ; preds = %do.end5
  %9 = load ptr, ptr %ctx, align 8
  %source = getelementptr inbounds %struct.AioContext, ptr %9, i32 0, i32 0
  call void @g_source_set_can_recurse(ptr noundef %source, i32 noundef 1)
  %10 = load ptr, ptr %ctx, align 8
  %list_lock = getelementptr inbounds %struct.AioContext, ptr %10, i32 0, i32 6
  call void @qemu_lockcnt_init(ptr noundef %list_lock)
  %11 = load ptr, ptr %ctx, align 8
  %12 = load ptr, ptr %ctx, align 8
  %call7 = call ptr @aio_bh_new_full(ptr noundef %11, ptr noundef @co_schedule_bh_cb, ptr noundef %12, ptr noundef @.str.3, ptr noundef null)
  %13 = load ptr, ptr %ctx, align 8
  %co_schedule_bh = getelementptr inbounds %struct.AioContext, ptr %13, i32 0, i32 12
  store ptr %call7, ptr %co_schedule_bh, align 8
  br label %do.body8

do.body8:                                         ; preds = %if.end
  %14 = load ptr, ptr %ctx, align 8
  %scheduled_coroutines = getelementptr inbounds %struct.AioContext, ptr %14, i32 0, i32 11
  %slh_first9 = getelementptr inbounds %struct.anon.2, ptr %scheduled_coroutines, i32 0, i32 0
  store ptr null, ptr %slh_first9, align 8
  br label %do.end10

do.end10:                                         ; preds = %do.body8
  %15 = load ptr, ptr %ctx, align 8
  %16 = load ptr, ptr %ctx, align 8
  %notifier11 = getelementptr inbounds %struct.AioContext, ptr %16, i32 0, i32 10
  call void @aio_set_event_notifier(ptr noundef %15, ptr noundef %notifier11, ptr noundef @aio_context_notifier_cb, ptr noundef @aio_context_notifier_poll, ptr noundef @aio_context_notifier_poll_ready)
  %17 = load ptr, ptr %ctx, align 8
  %linux_io_uring = getelementptr inbounds %struct.AioContext, ptr %17, i32 0, i32 16
  store ptr null, ptr %linux_io_uring, align 8
  %18 = load ptr, ptr %ctx, align 8
  %thread_pool = getelementptr inbounds %struct.AioContext, ptr %18, i32 0, i32 15
  store ptr null, ptr %thread_pool, align 8
  %19 = load ptr, ptr %ctx, align 8
  %lock = getelementptr inbounds %struct.AioContext, ptr %19, i32 0, i32 1
  call void @qemu_rec_mutex_init(ptr noundef %lock)
  %20 = load ptr, ptr %ctx, align 8
  %tlg = getelementptr inbounds %struct.AioContext, ptr %20, i32 0, i32 19
  %21 = load ptr, ptr %ctx, align 8
  call void @timerlistgroup_init(ptr noundef %tlg, ptr noundef @aio_timerlist_notify, ptr noundef %21)
  %22 = load ptr, ptr %ctx, align 8
  %poll_ns = getelementptr inbounds %struct.AioContext, ptr %22, i32 0, i32 21
  store i64 0, ptr %poll_ns, align 8
  %23 = load ptr, ptr %ctx, align 8
  %poll_max_ns = getelementptr inbounds %struct.AioContext, ptr %23, i32 0, i32 22
  store i64 0, ptr %poll_max_ns, align 8
  %24 = load ptr, ptr %ctx, align 8
  %poll_grow = getelementptr inbounds %struct.AioContext, ptr %24, i32 0, i32 23
  store i64 0, ptr %poll_grow, align 8
  %25 = load ptr, ptr %ctx, align 8
  %poll_shrink = getelementptr inbounds %struct.AioContext, ptr %25, i32 0, i32 24
  store i64 0, ptr %poll_shrink, align 8
  %26 = load ptr, ptr %ctx, align 8
  %aio_max_batch = getelementptr inbounds %struct.AioContext, ptr %26, i32 0, i32 25
  store i64 0, ptr %aio_max_batch, align 8
  %27 = load ptr, ptr %ctx, align 8
  %thread_pool_min = getelementptr inbounds %struct.AioContext, ptr %27, i32 0, i32 13
  store i32 0, ptr %thread_pool_min, align 8
  %28 = load ptr, ptr %ctx, align 8
  %thread_pool_max = getelementptr inbounds %struct.AioContext, ptr %28, i32 0, i32 14
  store i32 64, ptr %thread_pool_max, align 4
  %29 = load ptr, ptr %ctx, align 8
  call void @register_aiocontext(ptr noundef %29)
  %30 = load ptr, ptr %ctx, align 8
  store ptr %30, ptr %retval, align 8
  br label %return

fail:                                             ; preds = %if.then
  %31 = load ptr, ptr %ctx, align 8
  %source12 = getelementptr inbounds %struct.AioContext, ptr %31, i32 0, i32 0
  call void @g_source_destroy(ptr noundef %source12)
  store ptr null, ptr %retval, align 8
  br label %return

return:                                           ; preds = %fail, %do.end10
  %32 = load ptr, ptr %retval, align 8
  ret ptr %32
}