; Function Attrs: nounwind sspstrong uwtable
define dso_local noundef ptr @aio_context_new(ptr noundef %errp) local_unnamed_addr #0 {
entry:
  %call = tail call ptr @g_source_new(ptr noundef nonnull @aio_source_funcs, i32 noundef 584) #13
  %bh_list = getelementptr inbounds nuw i8, ptr %call, i64 176
  %bh_slice_list = getelementptr inbounds nuw i8, ptr %call, i64 184
  %sqh_last = getelementptr inbounds nuw i8, ptr %call, i64 192
  tail call void @llvm.memset.p0.i64(ptr noundef nonnull align 8 dereferenceable(16) %bh_list, i8 0, i64 16, i1 false)
  store ptr %bh_slice_list, ptr %sqh_last, align 8
  tail call void @aio_context_setup(ptr noundef %call) #13
  %notifier = getelementptr inbounds nuw i8, ptr %call, i64 204
  %call6 = tail call i32 @event_notifier_init(ptr noundef nonnull %notifier, i32 noundef 0) #13
  %cmp = icmp slt i32 %call6, 0
  br i1 %cmp, label %if.then, label %if.end

if.then:                                          ; preds = %entry
  %sub = sub i32 0, %call6
  tail call void (ptr, ptr, i32, ptr, i32, ptr, ...) @error_setg_errno_internal(ptr noundef %errp, ptr noundef nonnull @.str, i32 noundef 586, ptr noundef nonnull @__func__.aio_context_new, i32 noundef %sub, ptr noundef nonnull @.str.2) #13
  tail call void @g_source_destroy(ptr noundef nonnull %call) #13
  br label %return

if.end:                                           ; preds = %entry
  tail call void @g_source_set_can_recurse(ptr noundef nonnull %call, i32 noundef 1) #13
  %list_lock = getelementptr inbounds nuw i8, ptr %call, i64 172
  tail call void @qemu_lockcnt_init(ptr noundef nonnull %list_lock) #13
  %call.i = tail call noalias dereferenceable_or_null(56) ptr @g_malloc_n(i64 noundef 1, i64 noundef 56) #12
  store ptr %call, ptr %call.i, align 8
  %.compoundliteral.sroa.2.0..sroa_idx.i = getelementptr inbounds nuw i8, ptr %call.i, i64 8
  store ptr @.str.3, ptr %.compoundliteral.sroa.2.0..sroa_idx.i, align 8
  %.compoundliteral.sroa.3.0..sroa_idx.i = getelementptr inbounds nuw i8, ptr %call.i, i64 16
  store ptr @co_schedule_bh_cb, ptr %.compoundliteral.sroa.3.0..sroa_idx.i, align 8
  %.compoundliteral.sroa.4.0..sroa_idx.i = getelementptr inbounds nuw i8, ptr %call.i, i64 24
  store ptr %call, ptr %.compoundliteral.sroa.4.0..sroa_idx.i, align 8
  %.compoundliteral.sroa.5.0..sroa_idx.i = getelementptr inbounds nuw i8, ptr %call.i, i64 32
  store ptr null, ptr %.compoundliteral.sroa.5.0..sroa_idx.i, align 8
  %.compoundliteral.sroa.6.0..sroa_idx.i = getelementptr inbounds nuw i8, ptr %call.i, i64 40
  store i32 0, ptr %.compoundliteral.sroa.6.0..sroa_idx.i, align 8
  %.compoundliteral.sroa.71.0..sroa_idx.i = getelementptr inbounds nuw i8, ptr %call.i, i64 48
  store ptr null, ptr %.compoundliteral.sroa.71.0..sroa_idx.i, align 8
  %co_schedule_bh = getelementptr inbounds nuw i8, ptr %call, i64 224
  store ptr %call.i, ptr %co_schedule_bh, align 8
  %scheduled_coroutines = getelementptr inbounds nuw i8, ptr %call, i64 216
  store ptr null, ptr %scheduled_coroutines, align 8
  tail call void @aio_set_event_notifier(ptr noundef nonnull %call, ptr noundef nonnull %notifier, ptr noundef nonnull @aio_context_notifier_cb, ptr noundef nonnull @aio_context_notifier_poll, ptr noundef nonnull @aio_context_notifier_poll_ready) #13
  %thread_pool = getelementptr inbounds nuw i8, ptr %call, i64 240
  %lock = getelementptr inbounds nuw i8, ptr %call, i64 96
  tail call void @llvm.memset.p0.i64(ptr noundef nonnull align 8 dereferenceable(16) %thread_pool, i8 0, i64 16, i1 false)
  tail call void @qemu_rec_mutex_init(ptr noundef nonnull %lock) #13
  %tlg = getelementptr inbounds nuw i8, ptr %call, i64 480
  tail call void @timerlistgroup_init(ptr noundef nonnull %tlg, ptr noundef nonnull @aio_timerlist_notify, ptr noundef nonnull %call) #13
  %poll_ns = getelementptr inbounds nuw i8, ptr %call, i64 520
  %thread_pool_min = getelementptr inbounds nuw i8, ptr %call, i64 232
  store i32 0, ptr %thread_pool_min, align 8
  %thread_pool_max = getelementptr inbounds nuw i8, ptr %call, i64 236
  tail call void @llvm.memset.p0.i64(ptr noundef nonnull align 8 dereferenceable(40) %poll_ns, i8 0, i64 40, i1 false)
  store i32 64, ptr %thread_pool_max, align 4
  tail call void @register_aiocontext(ptr noundef nonnull %call) #13
  br label %return

return:                                           ; preds = %if.then, %if.end
  %retval.0 = phi ptr [ null, %if.then ], [ %call, %if.end ]
  ret ptr %retval.0
}